target datalayout = "e-m:e-p270:32:32-p271:32:32-p272:64:64-i64:64-i128:128-f80:128-n8:16:32:64-S128"
target triple = "x86_64-pc-linux-gnu"

@hf_gsm_bssmap_le_spare = internal global i32 0, align 4
@hf_gsm_bssmap_le_ciphering_key_flag = internal global i32 0, align 4
@hf_gsm_bssmap_le_current_deciphering_key_value = internal global i32 0, align 4
@hf_gsm_bssmap_le_next_deciphering_key_value = internal global i32 0, align 4

; Function Attrs: null_pointer_is_valid sspstrong uwtable
define internal zeroext i16 @de_bmaple_decihp_keys(ptr noundef %0, ptr noundef %1, ptr noundef %2, i32 noundef %3, i32 noundef %4, ptr noundef %5, i32 noundef %6) #1 {
  %8 = alloca ptr, align 8
  %9 = alloca ptr, align 8
  %10 = alloca ptr, align 8
  %11 = alloca i32, align 4
  %12 = alloca i32, align 4
  %13 = alloca ptr, align 8
  %14 = alloca i32, align 4
  %15 = alloca i32, align 4
  store ptr %0, ptr %8, align 8
  store ptr %1, ptr %9, align 8
  store ptr %2, ptr %10, align 8
  store i32 %3, ptr %11, align 4
  store i32 %4, ptr %12, align 4
  store ptr %5, ptr %13, align 8
  store i32 %6, ptr %14, align 4
  call void @llvm.lifetime.start.p0(i64 4, ptr %15) #3
  %16 = load i32, ptr %11, align 4
  %17 = shl i32 %16, 3
  store i32 %17, ptr %15, align 4
  %18 = load ptr, ptr %9, align 8
  %19 = load i32, ptr @hf_gsm_bssmap_le_spare, align 4
  %20 = load ptr, ptr %8, align 8
  %21 = load i32, ptr %15, align 4
  %22 = call ptr @proto_tree_add_bits_item(ptr noundef %18, i32 noundef %19, ptr noundef %20, i32 noundef %21, i32 noundef 7, i32 noundef 0)
  %23 = load i32, ptr %15, align 4
  %24 = add i32 %23, 7
  store i32 %24, ptr %15, align 4
  %25 = load ptr, ptr %9, align 8
  %26 = load i32, ptr @hf_gsm_bssmap_le_ciphering_key_flag, align 4
  %27 = load ptr, ptr %8, align 8
  %28 = load i32, ptr %15, align 4
  %29 = call ptr @proto_tree_add_bits_item(ptr noundef %25, i32 noundef %26, ptr noundef %27, i32 noundef %28, i32 noundef 1, i32 noundef 0)
  %30 = load i32, ptr %15, align 4
  %31 = add i32 %30, 1
  store i32 %31, ptr %15, align 4
  %32 = load ptr, ptr %9, align 8
  %33 = load i32, ptr @hf_gsm_bssmap_le_current_deciphering_key_value, align 4
  %34 = load ptr, ptr %8, align 8
  %35 = load i32, ptr %15, align 4
  %36 = call ptr @proto_tree_add_bits_item(ptr noundef %32, i32 noundef %33, ptr noundef %34, i32 noundef %35, i32 noundef 56, i32 noundef 0)
  %37 = load i32, ptr %15, align 4
  %38 = add i32 %37, 56
  store i32 %38, ptr %15, align 4
  %39 = load ptr, ptr %9, align 8
  %40 = load i32, ptr @hf_gsm_bssmap_le_next_deciphering_key_value, align 4
  %41 = load ptr, ptr %8, align 8
  %42 = load i32, ptr %15, align 4
  %43 = call ptr @proto_tree_add_bits_item(ptr noundef %39, i32 noundef %40, ptr noundef %41, i32 noundef %42, i32 noundef 56, i32 noundef 0)
  %44 = load i32, ptr %12, align 4
  %45 = trunc i32 %44 to i16
  call void @llvm.lifetime.end.p0(i64 4, ptr %15) #3
  ret i16 %45
}