; Function Attrs: null_pointer_is_valid sspstrong uwtable
define internal noundef zeroext i16 @de_bmaple_decihp_keys(ptr noundef %0, ptr noundef %1, ptr readnone captures(none) %2, i32 noundef %3, i32 noundef %4, ptr readnone captures(none) %5, i32 %6) #1 {
  %8 = shl i32 %3, 3
  %9 = load i32, ptr @hf_gsm_bssmap_le_spare, align 4
  %10 = tail call ptr @proto_tree_add_bits_item(ptr noundef %1, i32 noundef %9, ptr noundef %0, i32 noundef %8, i32 noundef 7, i32 noundef 0)
  %11 = or disjoint i32 %8, 7
  %12 = load i32, ptr @hf_gsm_bssmap_le_ciphering_key_flag, align 4
  %13 = tail call ptr @proto_tree_add_bits_item(ptr noundef %1, i32 noundef %12, ptr noundef %0, i32 noundef %11, i32 noundef 1, i32 noundef 0)
  %14 = add i32 %8, 8
  %15 = load i32, ptr @hf_gsm_bssmap_le_current_deciphering_key_value, align 4
  %16 = tail call ptr @proto_tree_add_bits_item(ptr noundef %1, i32 noundef %15, ptr noundef %0, i32 noundef %14, i32 noundef 56, i32 noundef 0)
  %17 = add i32 %8, 64
  %18 = load i32, ptr @hf_gsm_bssmap_le_next_deciphering_key_value, align 4
  %19 = tail call ptr @proto_tree_add_bits_item(ptr noundef %1, i32 noundef %18, ptr noundef %0, i32 noundef %17, i32 noundef 56, i32 noundef 0)
  %20 = trunc i32 %4 to i16
  ret i16 %20
}